Certificate:
    Data:
        Version: 3 (0x2)
        Serial Number: 6 (0x6)
    Signature Algorithm: sha256WithRSAEncryption
        Issuer: C=VN, ST=HN, L=HaNoi, O=VCCorp, OU=VCCloud, CN=VCCorp CA/name=EasyRSA/emailAddress=binhnd@vccloud.vn
        Validity
            Not Before: Mar 28 04:42:46 2018 GMT
            Not After : Mar 25 04:42:46 2028 GMT
        Subject: C=VN, ST=HN, L=HaNoi, O=VCCorp, OU=VCCloud, CN=newhapu-gateway/name=EasyRSA/emailAddress=binhnd@vccloud.vn
        Subject Public Key Info:
            Public Key Algorithm: rsaEncryption
                Public-Key: (2048 bit)
                Modulus:
                    00:b9:1c:0f:5e:ec:63:19:42:a6:62:fa:bd:35:00:
                    05:3b:f8:7c:5d:9f:9f:56:c0:97:ad:3e:7f:13:d2:
                    4d:62:71:b5:6b:d3:a8:8b:82:89:a3:04:dc:2b:3c:
                    ce:79:0d:c1:27:5c:79:3a:09:11:ac:80:0e:df:b0:
                    57:07:bc:f7:2e:e8:0d:e1:b1:0b:4f:3e:75:4e:b7:
                    50:ed:f8:88:58:38:e4:3b:65:73:66:dd:0e:dd:7e:
                    b3:08:ab:21:2a:7a:f5:04:ba:a7:10:e3:26:57:75:
                    fc:ec:c3:54:62:f9:52:17:05:e4:6b:9b:6e:a9:98:
                    35:f9:72:9c:63:22:37:e9:0c:da:75:51:85:e4:12:
                    6e:b8:85:1f:d9:a0:88:53:be:b2:59:72:8b:c6:55:
                    f9:f5:cd:ad:79:2b:5e:ba:57:8d:e2:b0:ee:bb:b2:
                    50:06:17:65:bc:00:c0:17:22:e8:f5:6e:a8:3f:0d:
                    fe:5a:63:ec:39:1f:ef:2b:51:2d:9f:cf:69:4a:37:
                    a2:25:ea:86:02:02:6f:aa:57:b0:91:07:e7:17:92:
                    fd:29:0f:9c:a8:8b:9b:6a:09:73:60:32:7d:a6:71:
                    46:00:14:7f:5e:88:3d:a1:86:c8:68:08:d0:b3:d5:
                    97:29:92:fa:34:bd:4f:0e:34:a3:cb:7d:bb:de:de:
                    eb:2d
                Exponent: 65537 (0x10001)
        X509v3 extensions:
            X509v3 Basic Constraints: 
                CA:FALSE
            Netscape Comment: 
                Easy-RSA Generated Certificate
            X509v3 Subject Key Identifier: 
                5A:B9:69:9F:30:CF:7C:15:73:AA:7B:8B:58:2E:8A:06:CA:D0:DB:25
            X509v3 Authority Key Identifier: 
                keyid:A4:FF:FD:3E:D2:E7:5C:21:E7:54:D9:67:01:52:B0:CF:E4:C6:2C:FF
                DirName:/C=VN/ST=HN/L=HaNoi/O=VCCorp/OU=VCCloud/CN=VCCorp CA/name=EasyRSA/emailAddress=binhnd@vccloud.vn
                serial:B6:C0:C7:ED:81:C8:9C:54

            X509v3 Extended Key Usage: 
                TLS Web Client Authentication
            X509v3 Key Usage: 
                Digital Signature
    Signature Algorithm: sha256WithRSAEncryption
         8d:7f:2e:3c:f8:80:34:92:83:da:f2:e5:02:32:6d:e8:7f:9c:
         d9:b9:d8:66:47:c1:04:fd:d9:64:86:da:4b:fa:87:23:89:b7:
         b1:5f:55:63:77:be:f7:91:b2:dc:30:85:e7:f9:32:8b:51:a2:
         75:8c:17:02:a8:29:f3:f5:64:4e:c0:00:59:1a:ad:50:0c:78:
         9e:ca:20:bf:a3:1f:61:96:29:f8:d7:ae:74:2b:39:86:97:d2:
         5b:de:81:67:40:1e:87:9b:4c:33:b1:b3:e1:a1:8d:e6:d0:9d:
         ed:82:dd:29:94:e5:3f:07:77:a4:2f:4b:44:8c:3f:94:8c:90:
         7c:53:72:06:2c:e0:a8:7b:03:57:6b:3e:44:13:85:b0:be:db:
         86:18:99:dd:de:ca:a7:3b:11:10:f0:58:e2:99:da:62:56:19:
         a9:cc:4d:e6:a4:54:c3:4f:0c:67:2a:c2:af:cc:83:77:b8:bd:
         6d:09:77:f5:89:4c:f5:20:40:f0:1e:02:3a:93:b2:d3:b6:32:
         04:fe:24:fd:8f:72:81:32:cb:4f:03:32:16:7c:60:11:a4:7b:
         95:0f:fe:84:67:91:2f:ad:37:bf:25:b7:27:d0:8b:c8:b8:ac:
         57:18:3d:76:0f:34:02:95:97:da:50:06:c8:33:26:5f:33:b8:
         d8:25:db:a2
-----BEGIN CERTIFICATE-----
MIIE+zCCA+OgAwIBAgIBBjANBgkqhkiG9w0BAQsFADCBlTELMAkGA1UEBhMCVk4x
CzAJBgNVBAgTAkhOMQ4wDAYDVQQHEwVIYU5vaTEPMA0GA1UEChMGVkNDb3JwMRAw
DgYDVQQLEwdWQ0Nsb3VkMRIwEAYDVQQDEwlWQ0NvcnAgQ0ExEDAOBgNVBCkTB0Vh
c3lSU0ExIDAeBgkqhkiG9w0BCQEWEWJpbmhuZEB2Y2Nsb3VkLnZuMB4XDTE4MDMy
ODA0NDI0NloXDTI4MDMyNTA0NDI0NlowgZsxCzAJBgNVBAYTAlZOMQswCQYDVQQI
EwJITjEOMAwGA1UEBxMFSGFOb2kxDzANBgNVBAoTBlZDQ29ycDEQMA4GA1UECxMH
VkNDbG91ZDEYMBYGA1UEAxMPbmV3aGFwdS1nYXRld2F5MRAwDgYDVQQpEwdFYXN5
UlNBMSAwHgYJKoZIhvcNAQkBFhFiaW5obmRAdmNjbG91ZC52bjCCASIwDQYJKoZI
hvcNAQEBBQADggEPADCCAQoCggEBALkcD17sYxlCpmL6vTUABTv4fF2fn1bAl60+
fxPSTWJxtWvTqIuCiaME3Cs8znkNwSdceToJEayADt+wVwe89y7oDeGxC08+dU63
UO34iFg45Dtlc2bdDt1+swirISp69QS6pxDjJld1/OzDVGL5UhcF5GubbqmYNfly
nGMiN+kM2nVRheQSbriFH9mgiFO+sllyi8ZV+fXNrXkrXrpXjeKw7ruyUAYXZbwA
wBci6PVuqD8N/lpj7Dkf7ytRLZ/PaUo3oiXqhgICb6pXsJEH5xeS/SkPnKiLm2oJ
c2AyfaZxRgAUf16IPaGGyGgI0LPVlymS+jS9Tw40o8t9u97e6y0CAwEAAaOCAUww
ggFIMAkGA1UdEwQCMAAwLQYJYIZIAYb4QgENBCAWHkVhc3ktUlNBIEdlbmVyYXRl
ZCBDZXJ0aWZpY2F0ZTAdBgNVHQ4EFgQUWrlpnzDPfBVzqnuLWC6KBsrQ2yUwgcoG
A1UdIwSBwjCBv4AUpP/9PtLnXCHnVNlnAVKwz+TGLP+hgZukgZgwgZUxCzAJBgNV
BAYTAlZOMQswCQYDVQQIEwJITjEOMAwGA1UEBxMFSGFOb2kxDzANBgNVBAoTBlZD
Q29ycDEQMA4GA1UECxMHVkNDbG91ZDESMBAGA1UEAxMJVkNDb3JwIENBMRAwDgYD
VQQpEwdFYXN5UlNBMSAwHgYJKoZIhvcNAQkBFhFiaW5obmRAdmNjbG91ZC52boIJ
ALbAx+2ByJxUMBMGA1UdJQQMMAoGCCsGAQUFBwMCMAsGA1UdDwQEAwIHgDANBgkq
hkiG9w0BAQsFAAOCAQEAjX8uPPiANJKD2vLlAjJt6H+c2bnYZkfBBP3ZZIbaS/qH
I4m3sV9VY3e+95Gy3DCF5/kyi1GidYwXAqgp8/VkTsAAWRqtUAx4nsogv6MfYZYp
+NeudCs5hpfSW96BZ0Aeh5tMM7Gz4aGN5tCd7YLdKZTlPwd3pC9LRIw/lIyQfFNy
BizgqHsDV2s+RBOFsL7bhhiZ3d7KpzsREPBY4pnaYlYZqcxN5qRUw08MZyrCr8yD
d7i9bQl39YlM9SBA8B4COpOy07YyBP4k/Y9ygTLLTwMyFnxgEaR7lQ/+hGeRL603
vyW3J9CLyLisVxg9dg80ApWX2lAGyDMmXzO42CXbog==
-----END CERTIFICATE-----
