Certificate:
    Data:
        Version: 3 (0x2)
        Serial Number: 4 (0x4)
    Signature Algorithm: sha1WithRSAEncryption
        Issuer: C=VN, ST=HN, L=HaNoi, O=VCCORP, OU=VCCORP, CN=wepay/name=wepay/emailAddress=vpn@vccorp.vn
        Validity
            Not Before: Jul 18 10:19:50 2019 GMT
            Not After : Jul 15 10:19:50 2029 GMT
        Subject: C=VN, ST=HN, L=HaNoi, O=VCCORP, OU=VCCORP, CN=hapu_tienhv/name=hapu_tienhv/emailAddress=vpn@vccorp.vn
        Subject Public Key Info:
            Public Key Algorithm: rsaEncryption
                Public-Key: (1024 bit)
                Modulus:
                    00:b3:4e:f7:25:d0:5b:8c:ed:2a:b3:1b:e5:d5:bc:
                    a6:8e:92:a5:25:cd:a0:78:ea:b9:07:97:77:63:c7:
                    79:77:c7:dd:59:e5:ce:37:8b:da:8a:87:b7:60:af:
                    7a:67:2c:7e:00:56:7c:29:86:11:24:75:9b:9f:20:
                    0e:59:97:13:0f:91:c2:44:20:0b:d7:f3:28:31:1c:
                    30:55:3d:17:6e:3a:cb:3a:c5:bf:31:b5:fb:e0:f2:
                    11:b7:d4:9a:54:1d:d7:a0:f0:4e:2a:fc:71:b7:e1:
                    2f:8f:52:bb:c6:00:7c:66:a6:52:bb:a7:e9:ff:b8:
                    68:c2:04:33:66:53:ff:30:71
                Exponent: 65537 (0x10001)
        X509v3 extensions:
            X509v3 Basic Constraints: 
                CA:FALSE
            Netscape Comment: 
                Easy-RSA Generated Certificate
            X509v3 Subject Key Identifier: 
                6B:A7:3E:9A:37:D7:28:21:30:12:3E:8F:FA:15:9D:00:F2:E3:E3:E5
            X509v3 Authority Key Identifier: 
                keyid:0B:C9:3D:9E:A9:82:24:72:01:1E:4E:DA:F7:E3:CA:CD:45:2E:BB:A1
                DirName:/C=VN/ST=HN/L=HaNoi/O=VCCORP/OU=VCCORP/CN=wepay/name=wepay/emailAddress=vpn@vccorp.vn
                serial:BD:CC:04:AF:BC:C7:D8:D2

            X509v3 Extended Key Usage: 
                TLS Web Client Authentication
            X509v3 Key Usage: 
                Digital Signature
    Signature Algorithm: sha1WithRSAEncryption
         ac:fc:4c:ae:dd:fe:7e:4a:6c:b4:7e:25:b2:68:0c:7a:68:77:
         46:cd:22:9d:97:09:26:61:14:92:89:f6:28:16:d4:5e:9e:c5:
         90:95:51:af:6f:1e:bc:2f:01:03:13:ce:3a:0e:f8:7d:31:2b:
         ff:a5:e7:55:ac:15:36:49:b4:13:7b:10:30:9c:f4:8d:6d:1c:
         3b:e3:a0:30:32:f3:6f:34:83:b4:ca:b5:43:a1:1e:b1:02:e1:
         33:64:f1:82:71:40:27:f5:06:a6:bb:6d:71:f7:51:62:0b:52:
         89:ff:b0:ee:ce:3a:5b:74:fe:52:43:e3:4f:5a:a1:65:f6:90:
         08:ad
-----BEGIN CERTIFICATE-----
MIID2zCCA0SgAwIBAgIBBDANBgkqhkiG9w0BAQUFADCBijELMAkGA1UEBhMCVk4x
CzAJBgNVBAgTAkhOMQ4wDAYDVQQHEwVIYU5vaTEPMA0GA1UEChMGVkNDT1JQMQ8w
DQYDVQQLEwZWQ0NPUlAxDjAMBgNVBAMTBXdlcGF5MQ4wDAYDVQQpEwV3ZXBheTEc
MBoGCSqGSIb3DQEJARYNdnBuQHZjY29ycC52bjAeFw0xOTA3MTgxMDE5NTBaFw0y
OTA3MTUxMDE5NTBaMIGWMQswCQYDVQQGEwJWTjELMAkGA1UECBMCSE4xDjAMBgNV
BAcTBUhhTm9pMQ8wDQYDVQQKEwZWQ0NPUlAxDzANBgNVBAsTBlZDQ09SUDEUMBIG
A1UEAxQLaGFwdV90aWVuaHYxFDASBgNVBCkUC2hhcHVfdGllbmh2MRwwGgYJKoZI
hvcNAQkBFg12cG5AdmNjb3JwLnZuMIGfMA0GCSqGSIb3DQEBAQUAA4GNADCBiQKB
gQCzTvcl0FuM7SqzG+XVvKaOkqUlzaB46rkHl3djx3l3x91Z5c43i9qKh7dgr3pn
LH4AVnwphhEkdZufIA5ZlxMPkcJEIAvX8ygxHDBVPRduOss6xb8xtfvg8hG31JpU
Hdeg8E4q/HG34S+PUrvGAHxmplK7p+n/uGjCBDNmU/8wcQIDAQABo4IBQTCCAT0w
CQYDVR0TBAIwADAtBglghkgBhvhCAQ0EIBYeRWFzeS1SU0EgR2VuZXJhdGVkIENl
cnRpZmljYXRlMB0GA1UdDgQWBBRrpz6aN9coITASPo/6FZ0A8uPj5TCBvwYDVR0j
BIG3MIG0gBQLyT2eqYIkcgEeTtr348rNRS67oaGBkKSBjTCBijELMAkGA1UEBhMC
Vk4xCzAJBgNVBAgTAkhOMQ4wDAYDVQQHEwVIYU5vaTEPMA0GA1UEChMGVkNDT1JQ
MQ8wDQYDVQQLEwZWQ0NPUlAxDjAMBgNVBAMTBXdlcGF5MQ4wDAYDVQQpEwV3ZXBh
eTEcMBoGCSqGSIb3DQEJARYNdnBuQHZjY29ycC52boIJAL3MBK+8x9jSMBMGA1Ud
JQQMMAoGCCsGAQUFBwMCMAsGA1UdDwQEAwIHgDANBgkqhkiG9w0BAQUFAAOBgQCs
/Eyu3f5+Smy0fiWyaAx6aHdGzSKdlwkmYRSSifYoFtRensWQlVGvbx68LwEDE846
Dvh9MSv/pedVrBU2SbQTexAwnPSNbRw746AwMvNvNIO0yrVDoR6xAuEzZPGCcUAn
9Qamu21x91FiC1KJ/7DuzjpbdP5SQ+NPWqFl9pAIrQ==
-----END CERTIFICATE-----
